target datalayout = "e-m:e-p270:32:32-p271:32:32-p272:64:64-i64:64-i128:128-f80:128-n8:16:32:64-S128"
target triple = "x86_64-pc-linux-gnu"

%struct.expert_field = type { i32, i32 }

@hf_ldp_tlv_sess_fr_merge = internal global i32 0, align 4
@hf_ldp_tlv_sess_fr_lr = internal global i32 0, align 4
@hf_ldp_tlv_sess_fr_dir = internal global i32 0, align 4
@hf_ldp_tlv_sess_fr_len = internal global i32 0, align 4
@hf_ldp_tlv_sess_fr_mindlci = internal global i32 0, align 4
@hf_ldp_tlv_sess_fr_maxdlci = internal global i32 0, align 4
@ett_ldp_tlv_val = internal global i32 0, align 4
@ei_ldp_tlv_fec_len = internal global %struct.expert_field zeroinitializer, align 4
@.str.1039 = private unnamed_addr constant [8 x i8] c"%s (%u)\00", align 1
@.str.1040 = private unnamed_addr constant [15 x i8] c"Unknown Length\00", align 1
@.str.1053 = private unnamed_addr constant [37 x i8] c"Number of Label Range components: %u\00", align 1
@.str.1056 = private unnamed_addr constant [47 x i8] c"Error processing TLV: Extra data at end of TLV\00", align 1
@.str.1057 = private unnamed_addr constant [74 x i8] c"Error processing Frame Relay Parameters TLV: length is %d, should be >= 4\00", align 1
@.str.1058 = private unnamed_addr constant [23 x i8] c"Frame Relay Parameters\00", align 1
@.str.1059 = private unnamed_addr constant [35 x i8] c"Frame Relay Label Range Components\00", align 1
@.str.1060 = private unnamed_addr constant [37 x i8] c"Frame Relay Label Range Component %u\00", align 1

; Function Attrs: null_pointer_is_valid sspstrong uwtable
define internal void @dissect_tlv_frame_relay_session_parms(ptr noundef %0, ptr noundef %1, i32 noundef %2, ptr noundef %3, i32 noundef %4) #0 {
  %6 = alloca ptr, align 8
  %7 = alloca ptr, align 8
  %8 = alloca i32, align 4
  %9 = alloca ptr, align 8
  %10 = alloca i32, align 4
  %11 = alloca ptr, align 8
  %12 = alloca ptr, align 8
  %13 = alloca i8, align 1
  %14 = alloca i8, align 1
  %15 = alloca i8, align 1
  %16 = alloca i32, align 4
  store ptr %0, ptr %6, align 8
  store ptr %1, ptr %7, align 8
  store i32 %2, ptr %8, align 4
  store ptr %3, ptr %9, align 8
  store i32 %4, ptr %10, align 4
  call void @llvm.lifetime.start.p0(i64 8, ptr %11) #7
  call void @llvm.lifetime.start.p0(i64 8, ptr %12) #7
  call void @llvm.lifetime.start.p0(i64 1, ptr %13) #7
  call void @llvm.lifetime.start.p0(i64 1, ptr %14) #7
  call void @llvm.lifetime.start.p0(i64 1, ptr %15) #7
  %17 = load i32, ptr %10, align 4
  %18 = icmp slt i32 %17, 4
  br i1 %18, label %19, label %27

19:                                               ; preds = %5
  %20 = load ptr, ptr %9, align 8
  %21 = load ptr, ptr %7, align 8
  %22 = load ptr, ptr %6, align 8
  %23 = load i32, ptr %8, align 4
  %24 = load i32, ptr %10, align 4
  %25 = load i32, ptr %10, align 4
  %26 = call ptr (ptr, ptr, ptr, ptr, i32, i32, ptr, ...) @proto_tree_add_expert_format(ptr noundef %20, ptr noundef %21, ptr noundef @ei_ldp_tlv_fec_len, ptr noundef %22, i32 noundef %23, i32 noundef %24, ptr noundef @.str.1057, i32 noundef %25)
  store i32 1, ptr %16, align 4
  br label %144

27:                                               ; preds = %5
  %28 = load ptr, ptr %9, align 8
  %29 = load ptr, ptr %6, align 8
  %30 = load i32, ptr %8, align 4
  %31 = load i32, ptr %10, align 4
  %32 = load i32, ptr @ett_ldp_tlv_val, align 4
  %33 = call ptr @proto_tree_add_subtree(ptr noundef %28, ptr noundef %29, i32 noundef %30, i32 noundef %31, i32 noundef %32, ptr noundef null, ptr noundef @.str.1058)
  store ptr %33, ptr %11, align 8
  %34 = load ptr, ptr %11, align 8
  %35 = load i32, ptr @hf_ldp_tlv_sess_fr_merge, align 4
  %36 = load ptr, ptr %6, align 8
  %37 = load i32, ptr %8, align 4
  %38 = call ptr @proto_tree_add_item(ptr noundef %34, i32 noundef %35, ptr noundef %36, i32 noundef %37, i32 noundef 1, i32 noundef 0)
  %39 = load ptr, ptr %6, align 8
  %40 = load i32, ptr %8, align 4
  %41 = call zeroext i8 @tvb_get_uint8(ptr noundef %39, i32 noundef %40)
  %42 = zext i8 %41 to i32
  %43 = ashr i32 %42, 2
  %44 = and i32 %43, 15
  %45 = trunc i32 %44 to i8
  store i8 %45, ptr %13, align 1
  %46 = load ptr, ptr %11, align 8
  %47 = load i32, ptr @hf_ldp_tlv_sess_fr_lr, align 4
  %48 = load ptr, ptr %6, align 8
  %49 = load i32, ptr %8, align 4
  %50 = load i8, ptr %13, align 1
  %51 = zext i8 %50 to i32
  %52 = load i8, ptr %13, align 1
  %53 = zext i8 %52 to i32
  %54 = call ptr (ptr, i32, ptr, i32, i32, i32, ptr, ...) @proto_tree_add_uint_format(ptr noundef %46, i32 noundef %47, ptr noundef %48, i32 noundef %49, i32 noundef 1, i32 noundef %51, ptr noundef @.str.1053, i32 noundef %53)
  %55 = load ptr, ptr %11, align 8
  %56 = load i32, ptr @hf_ldp_tlv_sess_fr_dir, align 4
  %57 = load ptr, ptr %6, align 8
  %58 = load i32, ptr %8, align 4
  %59 = call ptr @proto_tree_add_item(ptr noundef %55, i32 noundef %56, ptr noundef %57, i32 noundef %58, i32 noundef 1, i32 noundef 0)
  %60 = load i32, ptr %8, align 4
  %61 = add i32 %60, 4
  store i32 %61, ptr %8, align 4
  %62 = load i32, ptr %10, align 4
  %63 = sub i32 %62, 4
  store i32 %63, ptr %10, align 4
  %64 = load ptr, ptr %11, align 8
  %65 = load ptr, ptr %6, align 8
  %66 = load i32, ptr %8, align 4
  %67 = load i32, ptr %10, align 4
  %68 = load i32, ptr @ett_ldp_tlv_val, align 4
  %69 = call ptr @proto_tree_add_subtree(ptr noundef %64, ptr noundef %65, i32 noundef %66, i32 noundef %67, i32 noundef %68, ptr noundef null, ptr noundef @.str.1059)
  store ptr %69, ptr %11, align 8
  store i8 1, ptr %14, align 1
  br label %70

70:                                               ; preds = %122, %27
  %71 = load i8, ptr %13, align 1
  %72 = zext i8 %71 to i32
  %73 = icmp sgt i32 %72, 0
  br i1 %73, label %74, label %77

74:                                               ; preds = %70
  %75 = load i32, ptr %10, align 4
  %76 = icmp sge i32 %75, 8
  br label %77

77:                                               ; preds = %74, %70
  %78 = phi i1 [ false, %70 ], [ %76, %74 ]
  br i1 %78, label %79, label %129

79:                                               ; preds = %77
  %80 = load ptr, ptr %11, align 8
  %81 = load ptr, ptr %6, align 8
  %82 = load i32, ptr %8, align 4
  %83 = load i32, ptr @ett_ldp_tlv_val, align 4
  %84 = load i8, ptr %14, align 1
  %85 = zext i8 %84 to i32
  %86 = call ptr (ptr, ptr, i32, i32, i32, ptr, ptr, ...) @proto_tree_add_subtree_format(ptr noundef %80, ptr noundef %81, i32 noundef %82, i32 noundef 8, i32 noundef %83, ptr noundef null, ptr noundef @.str.1060, i32 noundef %85)
  store ptr %86, ptr %12, align 8
  %87 = load ptr, ptr %6, align 8
  %88 = load i32, ptr %8, align 4
  %89 = call zeroext i16 @tvb_get_ntohs(ptr noundef %87, i32 noundef %88)
  %90 = zext i16 %89 to i32
  %91 = ashr i32 %90, 7
  %92 = trunc i32 %91 to i8
  %93 = zext i8 %92 to i32
  %94 = and i32 %93, 3
  %95 = trunc i32 %94 to i8
  store i8 %95, ptr %15, align 1
  %96 = load ptr, ptr %12, align 8
  %97 = load i32, ptr @hf_ldp_tlv_sess_fr_len, align 4
  %98 = load ptr, ptr %6, align 8
  %99 = load i32, ptr %8, align 4
  %100 = load i8, ptr %15, align 1
  %101 = zext i8 %100 to i32
  %102 = load i8, ptr %15, align 1
  %103 = zext i8 %102 to i32
  %104 = call ptr @val_to_str_const(i32 noundef %103, ptr noundef @tlv_fr_len_vals, ptr noundef @.str.1040)
  %105 = load i8, ptr %15, align 1
  %106 = zext i8 %105 to i32
  %107 = call ptr (ptr, i32, ptr, i32, i32, i32, ptr, ...) @proto_tree_add_uint_format_value(ptr noundef %96, i32 noundef %97, ptr noundef %98, i32 noundef %99, i32 noundef 2, i32 noundef %101, ptr noundef @.str.1039, ptr noundef %104, i32 noundef %106)
  %108 = load ptr, ptr %12, align 8
  %109 = load i32, ptr @hf_ldp_tlv_sess_fr_mindlci, align 4
  %110 = load ptr, ptr %6, align 8
  %111 = load i32, ptr %8, align 4
  %112 = add i32 %111, 1
  %113 = call ptr @proto_tree_add_item(ptr noundef %108, i32 noundef %109, ptr noundef %110, i32 noundef %112, i32 noundef 3, i32 noundef 0)
  %114 = load ptr, ptr %12, align 8
  %115 = load i32, ptr @hf_ldp_tlv_sess_fr_maxdlci, align 4
  %116 = load ptr, ptr %6, align 8
  %117 = load i32, ptr %8, align 4
  %118 = add i32 %117, 5
  %119 = call ptr @proto_tree_add_item(ptr noundef %114, i32 noundef %115, ptr noundef %116, i32 noundef %118, i32 noundef 3, i32 noundef 0)
  %120 = load i32, ptr %8, align 4
  %121 = add i32 %120, 8
  store i32 %121, ptr %8, align 4
  br label %122

122:                                              ; preds = %79
  %123 = load i8, ptr %14, align 1
  %124 = add i8 %123, 1
  store i8 %124, ptr %14, align 1
  %125 = load i32, ptr %10, align 4
  %126 = sub i32 %125, 8
  store i32 %126, ptr %10, align 4
  %127 = load i8, ptr %13, align 1
  %128 = add i8 %127, -1
  store i8 %128, ptr %13, align 1
  br label %70, !llvm.loop !22

129:                                              ; preds = %77
  %130 = load i32, ptr %10, align 4
  %131 = icmp ne i32 %130, 0
  br i1 %131, label %136, label %132

132:                                              ; preds = %129
  %133 = load i8, ptr %13, align 1
  %134 = zext i8 %133 to i32
  %135 = icmp ne i32 %134, 0
  br i1 %135, label %136, label %143

136:                                              ; preds = %132, %129
  %137 = load ptr, ptr %11, align 8
  %138 = load ptr, ptr %7, align 8
  %139 = load ptr, ptr %6, align 8
  %140 = load i32, ptr %8, align 4
  %141 = load i32, ptr %10, align 4
  %142 = call ptr (ptr, ptr, ptr, ptr, i32, i32, ptr, ...) @proto_tree_add_expert_format(ptr noundef %137, ptr noundef %138, ptr noundef @ei_ldp_tlv_fec_len, ptr noundef %139, i32 noundef %140, i32 noundef %141, ptr noundef @.str.1056)
  br label %143

143:                                              ; preds = %136, %132
  store i32 0, ptr %16, align 4
  br label %144

144:                                              ; preds = %143, %19
  call void @llvm.lifetime.end.p0(i64 1, ptr %15) #7
  call void @llvm.lifetime.end.p0(i64 1, ptr %14) #7
  call void @llvm.lifetime.end.p0(i64 1, ptr %13) #7
  call void @llvm.lifetime.end.p0(i64 8, ptr %12) #7
  call void @llvm.lifetime.end.p0(i64 8, ptr %11) #7
  %145 = load i32, ptr %16, align 4
  switch i32 %145, label %147 [
    i32 0, label %146
    i32 1, label %146
  ]

146:                                              ; preds = %144, %144
  ret void

147:                                              ; preds = %144
  unreachable
}