; Function Attrs: null_pointer_is_valid sspstrong uwtable
define internal fastcc void @dissect_tlv_frame_relay_session_parms(ptr noundef %0, ptr noundef %1, i32 noundef %2, ptr noundef %3, i32 noundef range(i32 0, 2147483644) %4) unnamed_addr #0 {
  %6 = icmp samesign ult i32 %4, 4
  br i1 %6, label %7, label %9

7:                                                ; preds = %5
  %8 = tail call ptr (ptr, ptr, ptr, ptr, i32, i32, ptr, ...) @proto_tree_add_expert_format(ptr noundef %3, ptr noundef %1, ptr noundef nonnull @ei_ldp_tlv_fec_len, ptr noundef %0, i32 noundef %2, i32 noundef %4, ptr noundef nonnull @.str.1057, i32 noundef %4)
  br label %53

9:                                                ; preds = %5
  %10 = load i32, ptr @ett_ldp_tlv_val, align 4
  %11 = tail call ptr @proto_tree_add_subtree(ptr noundef %3, ptr noundef %0, i32 noundef %2, i32 noundef %4, i32 noundef %10, ptr noundef null, ptr noundef nonnull @.str.1058)
  %12 = load i32, ptr @hf_ldp_tlv_sess_fr_merge, align 4
  %13 = tail call ptr @proto_tree_add_item(ptr noundef %11, i32 noundef %12, ptr noundef %0, i32 noundef %2, i32 noundef 1, i32 noundef 0)
  %14 = tail call zeroext i8 @tvb_get_uint8(ptr noundef %0, i32 noundef %2)
  %15 = lshr i8 %14, 2
  %16 = and i8 %15, 15
  %17 = load i32, ptr @hf_ldp_tlv_sess_fr_lr, align 4
  %18 = zext nneg i8 %16 to i32
  %19 = tail call ptr (ptr, i32, ptr, i32, i32, i32, ptr, ...) @proto_tree_add_uint_format(ptr noundef %11, i32 noundef %17, ptr noundef %0, i32 noundef %2, i32 noundef 1, i32 noundef %18, ptr noundef nonnull @.str.1053, i32 noundef %18)
  %20 = load i32, ptr @hf_ldp_tlv_sess_fr_dir, align 4
  %21 = tail call ptr @proto_tree_add_item(ptr noundef %11, i32 noundef %20, ptr noundef %0, i32 noundef %2, i32 noundef 1, i32 noundef 0)
  %22 = add i32 %2, 4
  %23 = add nsw i32 %4, -4
  %24 = load i32, ptr @ett_ldp_tlv_val, align 4
  %25 = tail call ptr @proto_tree_add_subtree(ptr noundef %11, ptr noundef %0, i32 noundef %22, i32 noundef %23, i32 noundef %24, ptr noundef null, ptr noundef nonnull @.str.1059)
  %26 = icmp ne i8 %16, 0
  %27 = icmp samesign ugt i32 %23, 7
  %28 = select i1 %26, i1 %27, i1 false
  br i1 %28, label %.lr.ph, label %._crit_edge

.lr.ph:                                           ; preds = %9, %.lr.ph
  %indvars.iv = phi i32 [ %indvars.iv.next, %.lr.ph ], [ 1, %9 ]
  %.069 = phi i32 [ %44, %.lr.ph ], [ %22, %9 ]
  %.06367 = phi i8 [ %46, %.lr.ph ], [ %16, %9 ]
  %.06466 = phi i32 [ %45, %.lr.ph ], [ %23, %9 ]
  %29 = load i32, ptr @ett_ldp_tlv_val, align 4
  %30 = tail call ptr (ptr, ptr, i32, i32, i32, ptr, ptr, ...) @proto_tree_add_subtree_format(ptr noundef %25, ptr noundef %0, i32 noundef %.069, i32 noundef 8, i32 noundef %29, ptr noundef null, ptr noundef nonnull @.str.1060, i32 noundef %indvars.iv)
  %31 = tail call zeroext i16 @tvb_get_ntohs(ptr noundef %0, i32 noundef %.069)
  %32 = lshr i16 %31, 7
  %33 = and i16 %32, 3
  %34 = zext nneg i16 %33 to i32
  %35 = load i32, ptr @hf_ldp_tlv_sess_fr_len, align 4
  %36 = tail call ptr @val_to_str_const(i32 noundef %34, ptr noundef nonnull @tlv_fr_len_vals, ptr noundef nonnull @.str.1040)
  %37 = tail call ptr (ptr, i32, ptr, i32, i32, i32, ptr, ...) @proto_tree_add_uint_format_value(ptr noundef %30, i32 noundef %35, ptr noundef %0, i32 noundef %.069, i32 noundef 2, i32 noundef %34, ptr noundef nonnull @.str.1039, ptr noundef %36, i32 noundef %34)
  %38 = load i32, ptr @hf_ldp_tlv_sess_fr_mindlci, align 4
  %39 = add i32 %.069, 1
  %40 = tail call ptr @proto_tree_add_item(ptr noundef %30, i32 noundef %38, ptr noundef %0, i32 noundef %39, i32 noundef 3, i32 noundef 0)
  %41 = load i32, ptr @hf_ldp_tlv_sess_fr_maxdlci, align 4
  %42 = add i32 %.069, 5
  %43 = tail call ptr @proto_tree_add_item(ptr noundef %30, i32 noundef %41, ptr noundef %0, i32 noundef %42, i32 noundef 3, i32 noundef 0)
  %44 = add i32 %.069, 8
  %indvars.iv.next = add nuw nsw i32 %indvars.iv, 1
  %45 = add nsw i32 %.06466, -8
  %46 = add nsw i8 %.06367, -1
  %47 = icmp ne i8 %46, 0
  %48 = icmp samesign ugt i32 %45, 7
  %49 = select i1 %47, i1 %48, i1 false
  br i1 %49, label %.lr.ph, label %._crit_edge, !llvm.loop !21

._crit_edge:                                      ; preds = %.lr.ph, %9
  %.064.lcssa = phi i32 [ %23, %9 ], [ %45, %.lr.ph ]
  %.0.lcssa = phi i32 [ %22, %9 ], [ %44, %.lr.ph ]
  %.lcssa = phi i1 [ %26, %9 ], [ %47, %.lr.ph ]
  %50 = icmp ne i32 %.064.lcssa, 0
  %or.cond = or i1 %50, %.lcssa
  br i1 %or.cond, label %51, label %53

51:                                               ; preds = %._crit_edge
  %52 = tail call ptr (ptr, ptr, ptr, ptr, i32, i32, ptr, ...) @proto_tree_add_expert_format(ptr noundef %25, ptr noundef %1, ptr noundef nonnull @ei_ldp_tlv_fec_len, ptr noundef %0, i32 noundef %.0.lcssa, i32 noundef %.064.lcssa, ptr noundef nonnull @.str.1056)
  br label %53

53:                                               ; preds = %51, %._crit_edge, %7
  ret void
}